#SYMBOLS
Index	Identifier	Type	Flag	Data	Size	RefCount
0	__ResetSensorMutex	9	0	0	4	8
1	__signed_stack_001avoid	6	1	4	4	6
2	__signed_stack_001dropOff	6	1	8	4	4
3	__CLSCSMutex1	9	0	12	4	2
4	__D0SetSensorLowspeed_inline_lightavoid	6	1	16	4	3
5	__DU0SetSensorLowspeed_inline_lightavoid	5	1	20	4	2
6	__signed_stack_001findDumpsite	6	1	24	4	6
7	__rotate_theAngle3	5	1	28	4	2
8	__Wait_7qG2_ms_7qG2_000_inline_openClaw	5	1	32	4	2
9	__Wait_7qG2_ms_7qG2_000_inline_avoid	5	1	36	4	8
10	__signed_stack_001lightavoid	6	1	40	4	2
11	__signed_stack_001main	6	1	44	4	6
12	__Wait_7qG2_ms_7qG2_000_inline_closeClaw	5	1	48	4	2
13	__DU0SetSensorLowspeed_inline_avoid	5	1	52	4	2
14	__D0findDumpsite	6	1	56	4	15
15	__D0lightavoid	6	1	60	4	11
16	__D0main	6	1	64	4	14
17	__D0closeClaw	6	1	68	4	2
18	__D0avoid	6	1	72	4	23
19	__D0dropOff	6	1	76	4	4
20	__D0openClaw	6	1	80	4	2
21	__CLSRMutex1	9	0	84	4	2
22	__D0SetSensorLowspeed_inline_avoid	6	1	88	4	3
23	__CLSWMutex1	9	0	92	4	2
24	__RLSBmutex1	9	0	96	4	4
25	__D0SetSensorLight_inline_findDumpsite	6	1	100	4	3
26	__DU0SetSensorLight_inline_findDumpsite	5	1	104	4	2
27	__rotate_theAngle0	5	1	108	4	2
28	__Wait_7qG2_ms_7qG2_000_inline_lightavoid	5	1	112	4	4
29	__Wait_7qG2_ms_7qG2_000_inline_dropOff	5	1	116	4	2
30	__rotate_angle3	6	1	120	4	5
31	__OnRevMutex	9	0	124	4	22
32	__Wait_7qG2_ms_7qG2_000_inline_main	5	1	128	4	4
33	__rotate_angle0	6	1	132	4	6
34	__rotateMutex0	9	0	136	4	6
35	__rotate_RotCount0	4	1	140	2	4
36	avoids	4	1	142	2	7
37	__findDumpsite_7qG2_THRESHOLD_7qG2_000	4	1	144	2	2
38	__findDumpsite_7qG2_x_7qG2_000	4	1	146	2	3
39	__rotate_OldRotCount0	4	1	148	2	2
40	__constValNeg360	4	0	150	2	1
41	__rotate_OldRotCount3	4	1	152	2	2
42	__rotate_RotCount3	4	1	154	2	4
43	__lightavoid_7qG2_THRESHOLD_7qG2_000	4	1	156	2	2
44	__avoid_7qG2_THRESHOLD_7qG2_000	4	1	158	2	2
45	__SetSensorLight_7qG2_bActive_7qG2_000_inline_findDumpsite	1	1	160	1	2
46	__SetSensorLight_7qG2_port_7qG2_000_inline_findDumpsite	1	1	161	1	4
47	__findDumpsite_return	1	1	162	1	3
48	__SetSensorType_7qG2_port_7qG2_000_inline_SetSensorLowspeed_inline_avoid	1	1	163	1	2
49	__zfSetSensorLight_inline_findDumpsite	1	1	164	1	2
50	__SetSensorMode_7qG2_port_7qG2_000_inline_SetSensorLowspeed_inline_avoid	1	1	165	1	2
51	__SetSensorType_7qG2_type_7qG2_000_inline_SetSensorLowspeed_inline_avoid	1	1	166	1	2
52	__zfmain	1	1	167	1	8
53	__ResetSensor_7qG2_port_7qG2_000_inline_SetSensorLowspeed_inline_avoid	1	1	168	1	2
54	__SetSensorType_7qG2_type_7qG2_000_inline_SetSensorLight_inline_findDumpsite	1	1	169	1	2
55	__lightavoid_return	1	1	170	1	3
56	__zffindDumpsite	1	1	171	1	9
57	__SetSensorMode_7qG2_mode_7qG2_000_inline_SetSensorLowspeed_inline_avoid	1	1	172	1	2
58	__zflightavoid	1	1	173	1	3
59	__SetSensorType_7qG2_port_7qG2_000_inline_SetSensorLight_inline_findDumpsite	1	1	174	1	2
60	__SetSensorLowspeed_7qG2_bIsPowered_7qG2_000_inline_avoid	1	1	175	1	2
61	__closeClaw_return	1	1	176	1	3
62	__constVal96	2	0	177	1	30
63	__avoid_return	1	1	178	1	3
64	__SetSensorType_7qG2_port_7qG2_000_inline_SetSensorLowspeed_inline_lightavoid	1	1	179	1	2
65	__SetSensorLowspeed_7qG2_port_7qG2_000_inline_lightavoid	1	1	180	1	4
66	__openClaw_return	1	1	181	1	3
67	__constVal63	2	0	182	1	27
68	__SetSensorLowspeed_7qG2_bIsPowered_7qG2_000_inline_lightavoid	1	1	183	1	2
69	__zfSetSensorLowspeed_inline_avoid	1	1	184	1	2
70	__ResetSensor_7qG2_port_7qG2_000_inline_SetSensorLowspeed_inline_lightavoid	1	1	185	1	2
71	__dropOff_return	1	1	186	1	3
72	__SetSensorLowspeed_7qG2_port_7qG2_000_inline_avoid	1	1	187	1	4
73	__SetSensorMode_7qG2_port_7qG2_000_inline_SetSensorLowspeed_inline_lightavoid	1	1	188	1	2
74	__SetSensorType_7qG2_type_7qG2_000_inline_SetSensorLowspeed_inline_lightavoid	1	1	189	1	2
75	__SetSensorMode_7qG2_mode_7qG2_000_inline_SetSensorLowspeed_inline_lightavoid	1	1	190	1	2
76	__zfSetSensorLowspeed_inline_lightavoid	1	1	191	1	2
77	__rotate_firstPort3	1	1	192	1	5
78	__rotate_sync3	1	1	193	1	2
79	__rotate_stop3	1	1	194	1	2
80	____initialize_global_data_return	1	1	195	1	3
81	__rotate_thePower0	2	1	196	1	4
82	__rotate_theTurnPct0	2	1	197	1	4
83	__rotate_power3	1	1	198	1	4
84	__rotate_turnpct3	2	1	199	1	3
85	__rotate_theRVP3	1	1	200	1	2
86	__rotate_theRVI3	1	1	201	1	2
87	__rotate_theRVD3	1	1	202	1	2
88	__rotate_theRS3	1	1	203	1	3
89	__rotate_theUF3	1	1	204	1	6
90	__rotate_theOM3	1	1	205	1	7
91	__rotate_theRM3	1	1	206	1	4
92	__rotate_sync0	1	1	207	1	3
93	__rotate_stop0	1	1	208	1	3
94	__rotate_turnpct0	2	1	209	1	4
95	__rotate_firstPort0	1	1	210	1	5
96	__OnRev_Tmp	2	1	211	1	22
97	__rotate_power0	1	1	212	1	5
98	__SetSensorColorFull_7qG2_port_7qG2_000_inline_main	1	1	213	1	4
99	__rotate_theUF0	1	1	214	1	6
100	__rotate_theRVI0	1	1	215	1	3
101	__rotate_theRVD0	1	1	216	1	3
102	__rotate_rs0	1	1	217	1	2
103	__rotate_theRVP0	1	1	218	1	3
104	__rotate_theOM0	1	1	219	1	7
105	__rotate_theRM0	1	1	220	1	4
106	__rotate_theRS0	1	1	221	1	3
107	____ReadLSBytes1_return	1	1	222	1	4
108	__SetSensorMode_7qG2_mode_7qG2_000_inline_SetSensorLight_inline_findDumpsite	1	1	223	1	2
109	__RLSBResult1	2	1	224	1	7
110	____ResetSensorSubroutine_return	1	1	225	1	6
111	__ResetSensor_7qG2_port_7qG2_000_inline_SetSensorLight_inline_findDumpsite	1	1	226	1	2
112	__constVal15	2	0	227	1	5
113	__RLSBytesCount1	1	1	228	1	8
114	__constVal13	2	0	229	1	1
115	__PFTmp	1	1	230	1	1
116	__zfavoid	1	1	231	1	9
117	__RLSBIterations1	1	1	232	1	4
118	__SetSensorMode_7qG2_port_7qG2_000_inline_SetSensorLight_inline_findDumpsite	1	1	233	1	2
119	__constVal2	2	0	234	1	4
120	__ResetSensorTmp	1	1	235	1	2
121	__constVal32	2	0	236	1	90
122	____RotateMotor0_sign_tmp	2	1	237	1	4
123	__constVal0	2	1	238	1	118
124	__constVal1	2	0	239	1	19
125	__rotate_thePower3	2	1	240	1	4
126	__rotate_rs3	1	1	241	1	2
127	____RotateMotor0_return	1	1	242	1	4
128	__rotate_theTurnPct3	2	1	243	1	4
129	__constVal3	2	0	244	1	29
130	__ResetSensorPort	1	1	245	1	6
131	____RotateMotor3_sign_tmp	2	1	246	1	4
132	__constVal50	2	0	247	1	2
133	____RotateMotor3_return	1	1	248	1	3
134	__CLSCSArgs1	8	0	3	4	4
135	__CLSCSArgs1.Result	2	1	252	1	4
136	__CLSCSArgs1.Port	1	1	253	1	4
137	__CLSCSArgs1.BytesReady	1	1	254	1	4
138	__CLSRArgs1	8	0	4	12	5
139	__CLSRArgs1.Result	2	1	256	1	5
140	__CLSRArgs1.Port	1	1	257	1	5
141	__CLSRArgs1.Buffer	7	0	258	4	5
142	__CLSRArgs1.Buffer.Buffer_type	1	0	0	1	0
143	__CLSRArgs1.BufferLen	1	1	260	1	5
144	__CLSWArgs1	8	0	4	12	5
145	__CLSWArgs1.Result	2	1	264	1	5
146	__CLSWArgs1.Port	1	1	265	1	5
147	__CLSWArgs1.Buffer	7	0	266	4	5
148	__CLSWArgs1.Buffer.Buffer_type	1	0	0	1	0
149	__CLSWArgs1.ReturnLen	1	1	268	1	5
150	__rotate_ports3	7	0	270	4	6
151	__rotate_ports3.__rotate_ports3_type	1	0	0	1	0
152	__rotate_ports0	7	0	272	4	7
153	__rotate_ports0.__rotate_ports0_type	1	0	0	1	0
154	__OUT_AB	7	0	274	4	14
155	__OUT_AB.__OUT_AB_type	1	0	0	1	0
156	__RLSReadBuf1	7	0	276	4	10
157	__RLSReadBuf1.__RLSReadBuf1_type	1	0	0	1	0
158	__RLSLastGoodRead1	7	0	278	4	2
159	__RLSLastGoodRead1.__RLSLastGoodRead1_type	1	0	0	1	0
160	__RLSBbufLSWrite1	7	0	280	4	2
161	__RLSBbufLSWrite1.__RLSBbufLSWrite1_type	1	0	0	1	0
#SOURCES
Clump	Line	PC	Source
0	106	0	#line 106 "Z:\Documents\GitHub\ENGR102\wasteDisposal.nxc"
0	107	0		subcall __initialize_global_data, ____initialize_global_data_return
0	106	2	#line 106 "Z:\Documents\GitHub\ENGR102\wasteDisposal.nxc"
0	106	2	#line 106 "Z:\Documents\GitHub\ENGR102\wasteDisposal.nxc"
0	107	2		set __SetSensorColorFull_7qG2_port_7qG2_000_inline_main, 0
0	106	5	#line 106 "Z:\Documents\GitHub\ENGR102\wasteDisposal.nxc"
0	3802	5	#line 3802 "NXCDefs.h"
0	3803	5	#pragma macro 6
0	3803	5		setin __constVal13, __SetSensorColorFull_7qG2_port_7qG2_000_inline_main, 0
0	3803	9		setin __constVal0, __SetSensorColorFull_7qG2_port_7qG2_000_inline_main, 1
0	3803	13		acquire __ResetSensorMutex
0	3803	14		mov __ResetSensorPort, __SetSensorColorFull_7qG2_port_7qG2_000_inline_main
0	3803	16		subcall __ResetSensorSubroutine, ____ResetSensorSubroutine_return
0	3803	18		release __ResetSensorMutex
0	4956	19	#line 4956 "NXCDefs.h"
0	3802	19	#line 3802 "NXCDefs.h"
0	107	19	#line 107 "Z:\Documents\GitHub\ENGR102\wasteDisposal.nxc"
0	107	19	#line 107 "Z:\Documents\GitHub\ENGR102\wasteDisposal.nxc"
0	108	19		set __D0main, 1
0	108	22	#line 108 "Z:\Documents\GitHub\ENGR102\wasteDisposal.nxc"
0	109	22		tst 5, __zfmain, __D0main
0	108	25	#line 108 "Z:\Documents\GitHub\ENGR102\wasteDisposal.nxc"
0	109	25		brtst 4, __NXC_Label_593, __zfmain
0	108	28	#line 108 "Z:\Documents\GitHub\ENGR102\wasteDisposal.nxc"
0	109	28		set __D0main, 75
0	109	31	#line 109 "Z:\Documents\GitHub\ENGR102\wasteDisposal.nxc"
0	110	31	#pragma macro 7
0	110	31		setout __OUT_AB, 2, __D0main, 1, __constVal3, 8, __constVal0, 6, __constVal32, 7, __constVal0, 5, __constVal0, 10, __constVal96, 11, __constVal32, 12, __constVal32, 0, __constVal63
0	4973	54	#line 4973 "Z:\Documents\GitHub\ENGR102\wasteDisposal.nxc"
0	109	54	#line 109 "Z:\Documents\GitHub\ENGR102\wasteDisposal.nxc"
0	110	54	#line 110 "Z:\Documents\GitHub\ENGR102\wasteDisposal.nxc"
0	111	54		subcall avoid, __avoid_return
0	110	56	#line 110 "Z:\Documents\GitHub\ENGR102\wasteDisposal.nxc"
0	110	56	#line 110 "Z:\Documents\GitHub\ENGR102\wasteDisposal.nxc"
0	111	56		getin __signed_stack_001main, __constVal0, 4
0	110	60	#line 110 "Z:\Documents\GitHub\ENGR102\wasteDisposal.nxc"
0	110	60	#line 110 "Z:\Documents\GitHub\ENGR102\wasteDisposal.nxc"
0	111	60		set __D0main, 2
0	110	63	#line 110 "Z:\Documents\GitHub\ENGR102\wasteDisposal.nxc"
0	111	63		cmp 4, __zfmain, __signed_stack_001main, __D0main
0	110	67	#line 110 "Z:\Documents\GitHub\ENGR102\wasteDisposal.nxc"
0	111	67		mov __D0main, __zfmain
0	111	69	#line 111 "Z:\Documents\GitHub\ENGR102\wasteDisposal.nxc"
0	112	69		brtst 4, __NXC_Label_600, __zfmain
0	112	72	#line 112 "Z:\Documents\GitHub\ENGR102\wasteDisposal.nxc"
0	113	72	#pragma macro 7
0	113	72		setout __OUT_AB, 2, __constVal0, 1, __constVal3, 8, __constVal0, 6, __constVal32, 7, __constVal0, 5, __constVal0, 10, __constVal96, 11, __constVal32, 12, __constVal32, 0, __constVal63
0	4993	95	#line 4993 "Z:\Documents\GitHub\ENGR102\wasteDisposal.nxc"
0	112	95	#line 112 "Z:\Documents\GitHub\ENGR102\wasteDisposal.nxc"
0	113	95	#line 113 "Z:\Documents\GitHub\ENGR102\wasteDisposal.nxc"
0	114	95		subcall closeClaw, __closeClaw_return
0	113	97	#line 113 "Z:\Documents\GitHub\ENGR102\wasteDisposal.nxc"
0	113	97	#line 113 "Z:\Documents\GitHub\ENGR102\wasteDisposal.nxc"
0	114	97		set __Wait_7qG2_ms_7qG2_000_inline_main, 500
0	113	100	#line 113 "Z:\Documents\GitHub\ENGR102\wasteDisposal.nxc"
0	7921	100	#line 7921 "NXCDefs.h"
0	7922	100		wait2 NA, __Wait_7qG2_ms_7qG2_000_inline_main
0	7921	103	#line 7921 "NXCDefs.h"
0	114	103	#line 114 "Z:\Documents\GitHub\ENGR102\wasteDisposal.nxc"
0	115	103	#line 115 "Z:\Documents\GitHub\ENGR102\wasteDisposal.nxc"
0	116	103		subcall findDumpsite, __findDumpsite_return
0	115	105	#line 115 "Z:\Documents\GitHub\ENGR102\wasteDisposal.nxc"
0	117	105	#line 117 "Z:\Documents\GitHub\ENGR102\wasteDisposal.nxc"
0	118	105		jmp __NXC_Label_603
0	117	107	#line 117 "Z:\Documents\GitHub\ENGR102\wasteDisposal.nxc"
0	118	107		getin __signed_stack_001main, __constVal0, 4
0	117	111	#line 117 "Z:\Documents\GitHub\ENGR102\wasteDisposal.nxc"
0	117	111	#line 117 "Z:\Documents\GitHub\ENGR102\wasteDisposal.nxc"
0	118	111		set __D0main, 4
0	117	114	#line 117 "Z:\Documents\GitHub\ENGR102\wasteDisposal.nxc"
0	118	114		cmp 4, __zfmain, __signed_stack_001main, __D0main
0	117	118	#line 117 "Z:\Documents\GitHub\ENGR102\wasteDisposal.nxc"
0	118	118		mov __D0main, __zfmain
0	118	120	#line 118 "Z:\Documents\GitHub\ENGR102\wasteDisposal.nxc"
0	119	120		brtst 4, __NXC_Label_606, __zfmain
0	118	123	#line 118 "Z:\Documents\GitHub\ENGR102\wasteDisposal.nxc"
0	119	123		set __D0main, 75
0	119	126	#line 119 "Z:\Documents\GitHub\ENGR102\wasteDisposal.nxc"
0	120	126	#pragma macro 10
0	120	126		acquire __OnRevMutex
0	120	127		neg __OnRev_Tmp, __D0main
0	120	130		setout __OUT_AB, 2, __OnRev_Tmp, 1, __constVal3, 8, __constVal0, 6, __constVal32, 7, __constVal0, 5, __constVal0, 10, __constVal96, 11, __constVal32, 12, __constVal32, 0, __constVal63
0	120	153		release __OnRevMutex
0	5037	154	#line 5037 "Z:\Documents\GitHub\ENGR102\wasteDisposal.nxc"
0	119	154	#line 119 "Z:\Documents\GitHub\ENGR102\wasteDisposal.nxc"
0	119	154	#line 119 "Z:\Documents\GitHub\ENGR102\wasteDisposal.nxc"
0	120	154		set __Wait_7qG2_ms_7qG2_000_inline_main, 500
0	119	157	#line 119 "Z:\Documents\GitHub\ENGR102\wasteDisposal.nxc"
0	7921	157	#line 7921 "NXCDefs.h"
0	7922	157		wait2 NA, __Wait_7qG2_ms_7qG2_000_inline_main
0	7921	160	#line 7921 "NXCDefs.h"
0	120	160	#line 120 "Z:\Documents\GitHub\ENGR102\wasteDisposal.nxc"
0	121	160	#line 121 "Z:\Documents\GitHub\ENGR102\wasteDisposal.nxc"
0	122	160	#pragma macro 7
0	122	160		setout __OUT_AB, 2, __constVal0, 1, __constVal3, 8, __constVal0, 6, __constVal32, 7, __constVal0, 5, __constVal0, 10, __constVal96, 11, __constVal32, 12, __constVal32, 0, __constVal63
0	5050	183	#line 5050 "Z:\Documents\GitHub\ENGR102\wasteDisposal.nxc"
0	121	183	#line 121 "Z:\Documents\GitHub\ENGR102\wasteDisposal.nxc"
0	121	183	#line 121 "Z:\Documents\GitHub\ENGR102\wasteDisposal.nxc"
0	122	183		set __signed_stack_001main, 50
0	121	186	#line 121 "Z:\Documents\GitHub\ENGR102\wasteDisposal.nxc"
0	121	186	#line 121 "Z:\Documents\GitHub\ENGR102\wasteDisposal.nxc"
0	122	186		set __D0main, 360
0	122	189	#line 122 "Z:\Documents\GitHub\ENGR102\wasteDisposal.nxc"
0	123	189	#pragma macro 33
0	123	189		acquire __rotateMutex0
0	123	190		arrbuild __rotate_ports0, __constVal0
0	123	194		mov __rotate_power0, __signed_stack_001main
0	123	196		mov __rotate_angle0, __D0main
0	123	198		mov __rotate_turnpct0, __constVal0
0	123	200		mov __rotate_sync0, __constVal0
0	123	202		mov __rotate_stop0, __constVal1
0	123	204		mov __rotate_theRVP0, __constVal32
0	123	206		mov __rotate_theRVI0, __constVal0
0	123	208		mov __rotate_theRVD0, __constVal96
0	123	210		subcall __RotateMotor0, ____RotateMotor0_return
0	123	212		release __rotateMutex0
0	5063	213	#line 5063 "Z:\Documents\GitHub\ENGR102\wasteDisposal.nxc"
0	122	213	#line 122 "Z:\Documents\GitHub\ENGR102\wasteDisposal.nxc"
0	124	213	#line 124 "Z:\Documents\GitHub\ENGR102\wasteDisposal.nxc"
0	126	213	#line 126 "Z:\Documents\GitHub\ENGR102\wasteDisposal.nxc"
0	130	213	#line 130 "Z:\Documents\GitHub\ENGR102\wasteDisposal.nxc"
0	131	213		jmp __NXC_Label_592
0	130	215	#line 130 "Z:\Documents\GitHub\ENGR102\wasteDisposal.nxc"
0	131	215		exit -1, -1
1	4476	0		brtst 4, __rotate_Done0, __rotate_angle0
1	4477	3		set ____RotateMotor0_sign_tmp, 0
1	4477	6		brtst EQ, __sign_0, __rotate_angle0
1	4477	9		set ____RotateMotor0_sign_tmp, -1
1	4477	12		brtst LT, __sign_0, __rotate_angle0
1	4477	15		set ____RotateMotor0_sign_tmp, 1
1	4477	18	__sign_0:	mov __rotate_thePower0, ____RotateMotor0_sign_tmp
1	4478	20		abs __rotate_theAngle0, __rotate_angle0
1	4479	23		mul __rotate_thePower0, __rotate_thePower0, __rotate_power0
1	4481	27		set __rotate_theUF0, 23
1	4482	30		brtst 4, __rotate_NoSync0, __rotate_sync0
1	4483	33		set __rotate_theOM0, 7
1	4484	36		set __rotate_theRM0, 2
1	4485	39		mov __rotate_theTurnPct0, __rotate_turnpct0
1	4486	41		brtst 4, __rotate_Start0, __rotate_theTurnPct0
1	4487	44		add __rotate_theUF0, __rotate_theUF0, __constVal32
1	4488	48		jmp __rotate_Start0
1	4490	50		set __rotate_theOM0, 3
1	4491	53		set __rotate_theRM0, 0
1	4492	56		set __rotate_theTurnPct0, 0
1	4494	59		set __rotate_theRS0, 32
1	4495	62		setout __rotate_ports0, 1, __rotate_theOM0, 8, __rotate_theRM0, 5, __rotate_theAngle0, 6, __rotate_theRS0, 10, __rotate_theRVP0, 11, __rotate_theRVI0, 12, __rotate_theRVD0, 2, __rotate_thePower0, 7, __rotate_turnpct0, 0, __rotate_theUF0
1	4498	85		index __rotate_firstPort0, __rotate_ports0, 65535
1	4500	89		getout __rotate_power0, __rotate_firstPort0, 2
1	4501	93		brtst 4, __rotate_doneRunning0, __rotate_power0
1	4502	96		getout __rotate_rs0, __rotate_firstPort0, 6
1	4503	100		brcmp 4, __rotate_Running0, __rotate_rs0, __constVal32
1	4505	104		brtst 4, __rotate_Reset0, __rotate_stop0
1	4507	107		set __rotate_theOM0, 7
1	4508	110		set __rotate_theUF0, 7
1	4509	113		setout __rotate_ports0, 1, __rotate_theOM0, 8, __constVal1, 6, __rotate_theRS0, 2, __constVal0, 5, __constVal0, 0, __rotate_theUF0
1	4511	128		getout __rotate_RotCount0, __rotate_firstPort0, 14
1	4513	132		mov __rotate_OldRotCount0, __rotate_RotCount0
1	4514	134		wait2 NA, __constVal50
1	4516	137		getout __rotate_RotCount0, __rotate_firstPort0, 14
1	4517	141		brcmp 5, __rotate_Stabilize0, __rotate_OldRotCount0, __rotate_RotCount0
1	4518	145		set __rotate_theOM0, 4
1	4519	148		setout __rotate_ports0, 8, __rotate_theRM0, 6, __constVal0, 1, __rotate_theOM0, 0, __constVal1
1	4522	159		brtst 4, __rotate_Done0, __rotate_theTurnPct0
1	4523	162		setout __rotate_ports0, 0, __constVal32
1	4525	167		subret ____RotateMotor0_return
2	4635	0		brtst 4, __rotate_Done3, __rotate_angle3
2	4636	3		set ____RotateMotor3_sign_tmp, 0
2	4636	6		brtst EQ, __sign_3, __rotate_angle3
2	4636	9		set ____RotateMotor3_sign_tmp, -1
2	4636	12		brtst LT, __sign_3, __rotate_angle3
2	4636	15		set ____RotateMotor3_sign_tmp, 1
2	4636	18	__sign_3:	mov __rotate_thePower3, ____RotateMotor3_sign_tmp
2	4637	20		abs __rotate_theAngle3, __rotate_angle3
2	4638	23		mul __rotate_thePower3, __rotate_thePower3, __rotate_power3
2	4640	27		set __rotate_theUF3, 23
2	4641	30		brtst 4, __rotate_NoSync3, __rotate_sync3
2	4642	33		set __rotate_theOM3, 7
2	4643	36		set __rotate_theRM3, 2
2	4644	39		mov __rotate_theTurnPct3, __rotate_turnpct3
2	4645	41		brtst 4, __rotate_Start3, __rotate_theTurnPct3
2	4646	44		add __rotate_theUF3, __rotate_theUF3, __constVal32
2	4647	48		jmp __rotate_Start3
2	4649	50		set __rotate_theOM3, 3
2	4650	53		set __rotate_theRM3, 0
2	4651	56		set __rotate_theTurnPct3, 0
2	4653	59		set __rotate_theRS3, 32
2	4654	62		setout __rotate_ports3, 1, __rotate_theOM3, 8, __rotate_theRM3, 5, __rotate_theAngle3, 6, __rotate_theRS3, 10, __rotate_theRVP3, 11, __rotate_theRVI3, 12, __rotate_theRVD3, 2, __rotate_thePower3, 7, __rotate_turnpct3, 0, __rotate_theUF3
2	4657	85		index __rotate_firstPort3, __rotate_ports3, 65535
2	4659	89		getout __rotate_power3, __rotate_firstPort3, 2
2	4660	93		brtst 4, __rotate_doneRunning3, __rotate_power3
2	4661	96		getout __rotate_rs3, __rotate_firstPort3, 6
2	4662	100		brcmp 4, __rotate_Running3, __rotate_rs3, __constVal32
2	4664	104		brtst 4, __rotate_Reset3, __rotate_stop3
2	4666	107		set __rotate_theOM3, 7
2	4667	110		set __rotate_theUF3, 7
2	4668	113		setout __rotate_ports3, 1, __rotate_theOM3, 8, __constVal1, 6, __rotate_theRS3, 2, __constVal0, 5, __constVal0, 0, __rotate_theUF3
2	4670	128		getout __rotate_RotCount3, __rotate_firstPort3, 14
2	4672	132		mov __rotate_OldRotCount3, __rotate_RotCount3
2	4673	134		wait2 NA, __constVal50
2	4675	137		getout __rotate_RotCount3, __rotate_firstPort3, 14
2	4676	141		brcmp 5, __rotate_Stabilize3, __rotate_OldRotCount3, __rotate_RotCount3
2	4677	145		set __rotate_theOM3, 4
2	4678	148		setout __rotate_ports3, 8, __rotate_theRM3, 6, __constVal0, 1, __rotate_theOM3, 0, __constVal1
2	4681	159		brtst 4, __rotate_Done3, __rotate_theTurnPct3
2	4682	162		setout __rotate_ports3, 0, __constVal32
2	4684	167		subret ____RotateMotor3_return
3	4885	0		setin __constVal1, __ResetSensorPort, 5
3	4887	4		getin __ResetSensorTmp, __ResetSensorPort, 5
3	4888	8		brtst 5, __SensorStillInvalid, __ResetSensorTmp
3	4889	11		subret ____ResetSensorSubroutine_return
4	5710	0	#pragma macro 25
4	5710	0		acquire __CLSWMutex1
4	5710	1		set __CLSWArgs1.Port, 1
4	5710	4		mov __CLSWArgs1.ReturnLen, __RLSBytesCount1
4	5710	6		mov __CLSWArgs1.Buffer, __RLSReadBuf1
4	5710	8		syscall 21, __CLSWArgs1
4	5710	11		mov __RLSBResult1, __CLSWArgs1.Result
4	5710	13		release __CLSWMutex1
4	5710	14	#line 5710 "NXTDefs.h"
4	5711	14		brtst 4, __RLSBReturn1, __RLSBytesCount1
4	5712	17		arrinit __RLSReadBuf1, __constVal0, __RLSBytesCount1
4	5713	21		brtst 5, __RLSBError1, __RLSBResult1
4	5714	24		set __RLSBIterations1, 4
4	5716	27	#pragma macro 23
4	5716	27		acquire __CLSCSMutex1
4	5716	28		set __CLSCSArgs1.Port, 1
4	5716	31		syscall 23, __CLSCSArgs1
4	5716	34		mov __RLSBytesCount1, __CLSCSArgs1.BytesReady
4	5716	36		mov __RLSBResult1, __CLSCSArgs1.Result
4	5716	38		release __CLSCSMutex1
4	5716	39	#line 5716 "NXTDefs.h"
4	5717	39		sub __RLSBIterations1, __RLSBIterations1, __constVal1
4	5718	43		brtst 2, __RLSBError1, __RLSBIterations1
4	5719	46		brtst 0, __RLSBError1, __RLSBResult1
4	5720	49		brtst 4, __RLSBReadyToRead1, __RLSBResult1
4	5722	52		wait2 NA, __constVal15
4	5723	55		jmp __RLSBDoCheckStatus1
4	5726	57	#pragma macro 25
4	5726	57		acquire __CLSRMutex1
4	5726	58		set __CLSRArgs1.Port, 1
4	5726	61		mov __CLSRArgs1.BufferLen, __RLSBytesCount1
4	5726	63		syscall 22, __CLSRArgs1
4	5726	66		mov __RLSReadBuf1, __CLSRArgs1.Buffer
4	5726	68		mov __RLSBResult1, __CLSRArgs1.Result
4	5726	70		release __CLSRMutex1
4	5726	71	#line 5726 "NXTDefs.h"
4	5727	71		brtst 5, __RLSBError1, __RLSBResult1
4	5728	74		mov __RLSLastGoodRead1, __RLSReadBuf1
4	5729	76		jmp __RLSBDone1
4	5731	78		mov __RLSReadBuf1, __RLSLastGoodRead1
4	5733	80		arrsize __RLSBytesCount1, __RLSReadBuf1
4	5735	83		subret ____ReadLSBytes1_return
5	3	0	#line 3 "Z:\Documents\GitHub\ENGR102\wasteDisposal.nxc"
5	4	0		set __D0closeClaw, 50
5	4	3	#line 4 "Z:\Documents\GitHub\ENGR102\wasteDisposal.nxc"
5	5	3	#pragma macro 7
5	5	3		setout __constVal2, 2, __D0closeClaw, 1, __constVal3, 8, __constVal0, 6, __constVal32, 7, __constVal0, 5, __constVal0, 10, __constVal96, 11, __constVal32, 12, __constVal32, 0, __constVal63
5	4157	26	#line 4157 "Z:\Documents\GitHub\ENGR102\wasteDisposal.nxc"
5	4	26	#line 4 "Z:\Documents\GitHub\ENGR102\wasteDisposal.nxc"
5	4	26	#line 4 "Z:\Documents\GitHub\ENGR102\wasteDisposal.nxc"
5	5	26		set __Wait_7qG2_ms_7qG2_000_inline_closeClaw, 500
5	4	29	#line 4 "Z:\Documents\GitHub\ENGR102\wasteDisposal.nxc"
5	7921	29	#line 7921 "NXCDefs.h"
5	7922	29		wait2 NA, __Wait_7qG2_ms_7qG2_000_inline_closeClaw
5	7921	32	#line 7921 "NXCDefs.h"
5	5	32	#line 5 "Z:\Documents\GitHub\ENGR102\wasteDisposal.nxc"
5	7	32	#line 7 "Z:\Documents\GitHub\ENGR102\wasteDisposal.nxc"
5	8	32	#pragma macro 7
5	8	32		setout __constVal2, 2, __constVal0, 1, __constVal3, 8, __constVal0, 6, __constVal32, 7, __constVal0, 5, __constVal0, 10, __constVal96, 11, __constVal32, 12, __constVal32, 0, __constVal63
5	4174	55	#line 4174 "Z:\Documents\GitHub\ENGR102\wasteDisposal.nxc"
5	7	55	#line 7 "Z:\Documents\GitHub\ENGR102\wasteDisposal.nxc"
5	9	55	#line 9 "Z:\Documents\GitHub\ENGR102\wasteDisposal.nxc"
5	10	55		subret __closeClaw_return
6	12	0	#line 12 "Z:\Documents\GitHub\ENGR102\wasteDisposal.nxc"
6	13	0		set __D0openClaw, 50
6	13	3	#line 13 "Z:\Documents\GitHub\ENGR102\wasteDisposal.nxc"
6	14	3	#pragma macro 10
6	14	3		acquire __OnRevMutex
6	14	4		neg __OnRev_Tmp, __D0openClaw
6	14	7		setout __constVal2, 2, __OnRev_Tmp, 1, __constVal3, 8, __constVal0, 6, __constVal32, 7, __constVal0, 5, __constVal0, 10, __constVal96, 11, __constVal32, 12, __constVal32, 0, __constVal63
6	14	30		release __OnRevMutex
6	4186	31	#line 4186 "Z:\Documents\GitHub\ENGR102\wasteDisposal.nxc"
6	13	31	#line 13 "Z:\Documents\GitHub\ENGR102\wasteDisposal.nxc"
6	13	31	#line 13 "Z:\Documents\GitHub\ENGR102\wasteDisposal.nxc"
6	14	31		set __Wait_7qG2_ms_7qG2_000_inline_openClaw, 500
6	13	34	#line 13 "Z:\Documents\GitHub\ENGR102\wasteDisposal.nxc"
6	7921	34	#line 7921 "NXCDefs.h"
6	7922	34		wait2 NA, __Wait_7qG2_ms_7qG2_000_inline_openClaw
6	7921	37	#line 7921 "NXCDefs.h"
6	14	37	#line 14 "Z:\Documents\GitHub\ENGR102\wasteDisposal.nxc"
6	15	37	#line 15 "Z:\Documents\GitHub\ENGR102\wasteDisposal.nxc"
6	16	37	#pragma macro 7
6	16	37		setout __constVal2, 2, __constVal0, 1, __constVal3, 8, __constVal0, 6, __constVal32, 7, __constVal0, 5, __constVal0, 10, __constVal96, 11, __constVal32, 12, __constVal32, 0, __constVal63
6	4203	60	#line 4203 "Z:\Documents\GitHub\ENGR102\wasteDisposal.nxc"
6	15	60	#line 15 "Z:\Documents\GitHub\ENGR102\wasteDisposal.nxc"
6	17	60	#line 17 "Z:\Documents\GitHub\ENGR102\wasteDisposal.nxc"
6	18	60		subret __openClaw_return
7	22	0	#line 22 "Z:\Documents\GitHub\ENGR102\wasteDisposal.nxc"
7	23	0		set __avoid_7qG2_THRESHOLD_7qG2_000, 32
7	22	3	#line 22 "Z:\Documents\GitHub\ENGR102\wasteDisposal.nxc"
7	22	3	#line 22 "Z:\Documents\GitHub\ENGR102\wasteDisposal.nxc"
7	23	3		set __SetSensorLowspeed_7qG2_port_7qG2_000_inline_avoid, 1
7	22	6	#line 22 "Z:\Documents\GitHub\ENGR102\wasteDisposal.nxc"
7	23	6	#line 23 "Z:\Documents\GitHub\ENGR102\wasteDisposal.nxc"
7	24	6		mov __SetSensorLowspeed_7qG2_bIsPowered_7qG2_000_inline_avoid, __constVal1
7	3758	8	#line 3758 "NXCDefs.h"
7	3759	8		mov __SetSensorType_7qG2_port_7qG2_000_inline_SetSensorLowspeed_inline_avoid, __SetSensorLowspeed_7qG2_port_7qG2_000_inline_avoid
7	3758	10	#line 3758 "NXCDefs.h"
7	3758	10	#line 3758 "NXCDefs.h"
7	3759	10		mov __DU0SetSensorLowspeed_inline_avoid, __SetSensorLowspeed_7qG2_bIsPowered_7qG2_000_inline_avoid
7	3758	12	#line 3758 "NXCDefs.h"
7	3759	12		tst 5, __zfSetSensorLowspeed_inline_avoid, __DU0SetSensorLowspeed_inline_avoid
7	3758	15	#line 3758 "NXCDefs.h"
7	3759	15		brtst 4, __004__NXC_Label_36, __zfSetSensorLowspeed_inline_avoid
7	3758	18	#line 3758 "NXCDefs.h"
7	3759	18		set __D0SetSensorLowspeed_inline_avoid, 11
7	3758	21	#line 3758 "NXCDefs.h"
7	3759	21		jmp __004__NXC_Label_37
7	3758	23	#line 3758 "NXCDefs.h"
7	3759	23		set __D0SetSensorLowspeed_inline_avoid, 10
7	3758	26	#line 3758 "NXCDefs.h"
7	3759	26		mov __SetSensorType_7qG2_type_7qG2_000_inline_SetSensorLowspeed_inline_avoid, __D0SetSensorLowspeed_inline_avoid
7	3663	28	#line 3663 "NXCDefs.h"
7	3664	28		setin __SetSensorType_7qG2_type_7qG2_000_inline_SetSensorLowspeed_inline_avoid, __SetSensorType_7qG2_port_7qG2_000_inline_SetSensorLowspeed_inline_avoid, 0
7	3663	32	#line 3663 "NXCDefs.h"
7	3759	32	#line 3759 "NXCDefs.h"
7	3759	32	#line 3759 "NXCDefs.h"
7	3760	32		mov __SetSensorMode_7qG2_port_7qG2_000_inline_SetSensorLowspeed_inline_avoid, __SetSensorLowspeed_7qG2_port_7qG2_000_inline_avoid
7	3759	34	#line 3759 "NXCDefs.h"
7	3759	34	#line 3759 "NXCDefs.h"
7	3760	34		set __SetSensorMode_7qG2_mode_7qG2_000_inline_SetSensorLowspeed_inline_avoid, 0
7	3759	37	#line 3759 "NXCDefs.h"
7	3676	37	#line 3676 "NXCDefs.h"
7	3677	37		setin __SetSensorMode_7qG2_mode_7qG2_000_inline_SetSensorLowspeed_inline_avoid, __SetSensorMode_7qG2_port_7qG2_000_inline_SetSensorLowspeed_inline_avoid, 1
7	3676	41	#line 3676 "NXCDefs.h"
7	3760	41	#line 3760 "NXCDefs.h"
7	3760	41	#line 3760 "NXCDefs.h"
7	3761	41		mov __ResetSensor_7qG2_port_7qG2_000_inline_SetSensorLowspeed_inline_avoid, __SetSensorLowspeed_7qG2_port_7qG2_000_inline_avoid
7	3760	43	#line 3760 "NXCDefs.h"
7	3694	43	#line 3694 "NXCDefs.h"
7	3695	43	#pragma macro 4
7	3695	43		acquire __ResetSensorMutex
7	3695	44		mov __ResetSensorPort, __ResetSensor_7qG2_port_7qG2_000_inline_SetSensorLowspeed_inline_avoid
7	3695	46		subcall __ResetSensorSubroutine, ____ResetSensorSubroutine_return
7	3695	48		release __ResetSensorMutex
7	4311	49	#line 4311 "NXCDefs.h"
7	3694	49	#line 3694 "NXCDefs.h"
7	3761	49	#line 3761 "NXCDefs.h"
7	23	49	#line 23 "Z:\Documents\GitHub\ENGR102\wasteDisposal.nxc"
7	23	49	#line 23 "Z:\Documents\GitHub\ENGR102\wasteDisposal.nxc"
7	24	49	#pragma macro 26
7	24	49		acquire __RLSBmutex1
7	24	50		mov __RLSReadBuf1, __RLSBbufLSWrite1
7	24	52		set __RLSBytesCount1, 1
7	24	55		wait2 NA, __constVal15
7	24	58		subcall __ReadLSBytes1, ____ReadLSBytes1_return
7	24	60		index __D0avoid, __RLSReadBuf1, 65535
7	24	64		release __RLSBmutex1
7	4316	65	#line 4316 "Z:\Documents\GitHub\ENGR102\wasteDisposal.nxc"
7	23	65	#line 23 "Z:\Documents\GitHub\ENGR102\wasteDisposal.nxc"
7	24	65		mov __signed_stack_001avoid, __D0avoid
7	23	67	#line 23 "Z:\Documents\GitHub\ENGR102\wasteDisposal.nxc"
7	24	67		mov __D0avoid, __avoid_7qG2_THRESHOLD_7qG2_000
7	23	69	#line 23 "Z:\Documents\GitHub\ENGR102\wasteDisposal.nxc"
7	24	69		cmp 0, __zfavoid, __signed_stack_001avoid, __D0avoid
7	23	73	#line 23 "Z:\Documents\GitHub\ENGR102\wasteDisposal.nxc"
7	24	73		mov __D0avoid, __zfavoid
7	24	75	#line 24 "Z:\Documents\GitHub\ENGR102\wasteDisposal.nxc"
7	25	75		brtst 4, __NXC_Label_503, __zfavoid
7	24	78	#line 24 "Z:\Documents\GitHub\ENGR102\wasteDisposal.nxc"
7	25	78		mov __signed_stack_001avoid, avoids
7	24	80	#line 24 "Z:\Documents\GitHub\ENGR102\wasteDisposal.nxc"
7	24	80	#line 24 "Z:\Documents\GitHub\ENGR102\wasteDisposal.nxc"
7	25	80		set __D0avoid, 5
7	24	83	#line 24 "Z:\Documents\GitHub\ENGR102\wasteDisposal.nxc"
7	25	83		cmp 1, __zfavoid, __signed_stack_001avoid, __D0avoid
7	24	87	#line 24 "Z:\Documents\GitHub\ENGR102\wasteDisposal.nxc"
7	25	87		mov __D0avoid, __zfavoid
7	25	89	#line 25 "Z:\Documents\GitHub\ENGR102\wasteDisposal.nxc"
7	26	89		brtst 4, __NXC_Label_506, __zfavoid
7	26	92	#line 26 "Z:\Documents\GitHub\ENGR102\wasteDisposal.nxc"
7	27	92	#pragma macro 7
7	27	92		setout __OUT_AB, 2, __constVal0, 1, __constVal3, 8, __constVal0, 6, __constVal32, 7, __constVal0, 5, __constVal0, 10, __constVal96, 11, __constVal32, 12, __constVal32, 0, __constVal63
7	4344	115	#line 4344 "Z:\Documents\GitHub\ENGR102\wasteDisposal.nxc"
7	26	115	#line 26 "Z:\Documents\GitHub\ENGR102\wasteDisposal.nxc"
7	26	115	#line 26 "Z:\Documents\GitHub\ENGR102\wasteDisposal.nxc"
7	27	115		set __D0avoid, 50
7	27	118	#line 27 "Z:\Documents\GitHub\ENGR102\wasteDisposal.nxc"
7	28	118	#pragma macro 10
7	28	118		acquire __OnRevMutex
7	28	119		neg __OnRev_Tmp, __D0avoid
7	28	122		setout __constVal0, 2, __OnRev_Tmp, 1, __constVal3, 8, __constVal0, 6, __constVal32, 7, __constVal0, 5, __constVal0, 10, __constVal96, 11, __constVal32, 12, __constVal32, 0, __constVal63
7	28	145		release __OnRevMutex
7	4351	146	#line 4351 "Z:\Documents\GitHub\ENGR102\wasteDisposal.nxc"
7	27	146	#line 27 "Z:\Documents\GitHub\ENGR102\wasteDisposal.nxc"
7	27	146	#line 27 "Z:\Documents\GitHub\ENGR102\wasteDisposal.nxc"
7	28	146		set __D0avoid, 75
7	28	149	#line 28 "Z:\Documents\GitHub\ENGR102\wasteDisposal.nxc"
7	29	149	#pragma macro 10
7	29	149		acquire __OnRevMutex
7	29	150		neg __OnRev_Tmp, __D0avoid
7	29	153		setout __constVal1, 2, __OnRev_Tmp, 1, __constVal3, 8, __constVal0, 6, __constVal32, 7, __constVal0, 5, __constVal0, 10, __constVal96, 11, __constVal32, 12, __constVal32, 0, __constVal63
7	29	176		release __OnRevMutex
7	4358	177	#line 4358 "Z:\Documents\GitHub\ENGR102\wasteDisposal.nxc"
7	28	177	#line 28 "Z:\Documents\GitHub\ENGR102\wasteDisposal.nxc"
7	28	177	#line 28 "Z:\Documents\GitHub\ENGR102\wasteDisposal.nxc"
7	29	177		set __Wait_7qG2_ms_7qG2_000_inline_avoid, 1000
7	28	180	#line 28 "Z:\Documents\GitHub\ENGR102\wasteDisposal.nxc"
7	7921	180	#line 7921 "NXCDefs.h"
7	7922	180		wait2 NA, __Wait_7qG2_ms_7qG2_000_inline_avoid
7	7921	183	#line 7921 "NXCDefs.h"
7	29	183	#line 29 "Z:\Documents\GitHub\ENGR102\wasteDisposal.nxc"
7	30	183	#line 30 "Z:\Documents\GitHub\ENGR102\wasteDisposal.nxc"
7	31	183	#pragma macro 7
7	31	183		setout __OUT_AB, 2, __constVal0, 1, __constVal3, 8, __constVal0, 6, __constVal32, 7, __constVal0, 5, __constVal0, 10, __constVal96, 11, __constVal32, 12, __constVal32, 0, __constVal63
7	4375	206	#line 4375 "Z:\Documents\GitHub\ENGR102\wasteDisposal.nxc"
7	30	206	#line 30 "Z:\Documents\GitHub\ENGR102\wasteDisposal.nxc"
7	30	206	#line 30 "Z:\Documents\GitHub\ENGR102\wasteDisposal.nxc"
7	31	206		set __D0avoid, 50
7	31	209	#line 31 "Z:\Documents\GitHub\ENGR102\wasteDisposal.nxc"
7	32	209	#pragma macro 10
7	32	209		acquire __OnRevMutex
7	32	210		neg __OnRev_Tmp, __D0avoid
7	32	213		setout __constVal1, 2, __OnRev_Tmp, 1, __constVal3, 8, __constVal0, 6, __constVal32, 7, __constVal0, 5, __constVal0, 10, __constVal96, 11, __constVal32, 12, __constVal32, 0, __constVal63
7	32	236		release __OnRevMutex
7	4382	237	#line 4382 "Z:\Documents\GitHub\ENGR102\wasteDisposal.nxc"
7	31	237	#line 31 "Z:\Documents\GitHub\ENGR102\wasteDisposal.nxc"
7	31	237	#line 31 "Z:\Documents\GitHub\ENGR102\wasteDisposal.nxc"
7	32	237		set __Wait_7qG2_ms_7qG2_000_inline_avoid, 750
7	31	240	#line 31 "Z:\Documents\GitHub\ENGR102\wasteDisposal.nxc"
7	7921	240	#line 7921 "NXCDefs.h"
7	7922	240		wait2 NA, __Wait_7qG2_ms_7qG2_000_inline_avoid
7	7921	243	#line 7921 "NXCDefs.h"
7	32	243	#line 32 "Z:\Documents\GitHub\ENGR102\wasteDisposal.nxc"
7	32	243	#line 32 "Z:\Documents\GitHub\ENGR102\wasteDisposal.nxc"
7	32	243	#line 32 "Z:\Documents\GitHub\ENGR102\wasteDisposal.nxc"
7	33	243	#line 33 "Z:\Documents\GitHub\ENGR102\wasteDisposal.nxc"
7	33	243	#line 33 "Z:\Documents\GitHub\ENGR102\wasteDisposal.nxc"
7	34	243		add avoids, avoids, __constVal1
7	33	247	#line 33 "Z:\Documents\GitHub\ENGR102\wasteDisposal.nxc"
7	33	247	#line 33 "Z:\Documents\GitHub\ENGR102\wasteDisposal.nxc"
7	33	247	#line 33 "Z:\Documents\GitHub\ENGR102\wasteDisposal.nxc"
7	34	247		mov __signed_stack_001avoid, avoids
7	33	249	#line 33 "Z:\Documents\GitHub\ENGR102\wasteDisposal.nxc"
7	33	249	#line 33 "Z:\Documents\GitHub\ENGR102\wasteDisposal.nxc"
7	34	249		set __D0avoid, 10
7	33	252	#line 33 "Z:\Documents\GitHub\ENGR102\wasteDisposal.nxc"
7	34	252		cmp 4, __zfavoid, __signed_stack_001avoid, __D0avoid
7	33	256	#line 33 "Z:\Documents\GitHub\ENGR102\wasteDisposal.nxc"
7	34	256		mov __D0avoid, __zfavoid
7	34	258	#line 34 "Z:\Documents\GitHub\ENGR102\wasteDisposal.nxc"
7	35	258		brtst 4, __NXC_Label_521, __zfavoid
7	35	261	#line 35 "Z:\Documents\GitHub\ENGR102\wasteDisposal.nxc"
7	36	261		set avoids, 1
7	35	264	#line 35 "Z:\Documents\GitHub\ENGR102\wasteDisposal.nxc"
7	35	264	#line 35 "Z:\Documents\GitHub\ENGR102\wasteDisposal.nxc"
7	37	264	#line 37 "Z:\Documents\GitHub\ENGR102\wasteDisposal.nxc"
7	38	264	#line 38 "Z:\Documents\GitHub\ENGR102\wasteDisposal.nxc"
7	39	264		jmp __NXC_Label_524
7	39	266	#line 39 "Z:\Documents\GitHub\ENGR102\wasteDisposal.nxc"
7	40	266	#pragma macro 7
7	40	266		setout __OUT_AB, 2, __constVal0, 1, __constVal3, 8, __constVal0, 6, __constVal32, 7, __constVal0, 5, __constVal0, 10, __constVal96, 11, __constVal32, 12, __constVal32, 0, __constVal63
7	4434	289	#line 4434 "Z:\Documents\GitHub\ENGR102\wasteDisposal.nxc"
7	39	289	#line 39 "Z:\Documents\GitHub\ENGR102\wasteDisposal.nxc"
7	39	289	#line 39 "Z:\Documents\GitHub\ENGR102\wasteDisposal.nxc"
7	40	289		set __D0avoid, 75
7	40	292	#line 40 "Z:\Documents\GitHub\ENGR102\wasteDisposal.nxc"
7	41	292	#pragma macro 10
7	41	292		acquire __OnRevMutex
7	41	293		neg __OnRev_Tmp, __D0avoid
7	41	296		setout __constVal0, 2, __OnRev_Tmp, 1, __constVal3, 8, __constVal0, 6, __constVal32, 7, __constVal0, 5, __constVal0, 10, __constVal96, 11, __constVal32, 12, __constVal32, 0, __constVal63
7	41	319		release __OnRevMutex
7	4441	320	#line 4441 "Z:\Documents\GitHub\ENGR102\wasteDisposal.nxc"
7	40	320	#line 40 "Z:\Documents\GitHub\ENGR102\wasteDisposal.nxc"
7	40	320	#line 40 "Z:\Documents\GitHub\ENGR102\wasteDisposal.nxc"
7	41	320		set __D0avoid, 50
7	41	323	#line 41 "Z:\Documents\GitHub\ENGR102\wasteDisposal.nxc"
7	42	323	#pragma macro 10
7	42	323		acquire __OnRevMutex
7	42	324		neg __OnRev_Tmp, __D0avoid
7	42	327		setout __constVal1, 2, __OnRev_Tmp, 1, __constVal3, 8, __constVal0, 6, __constVal32, 7, __constVal0, 5, __constVal0, 10, __constVal96, 11, __constVal32, 12, __constVal32, 0, __constVal63
7	42	350		release __OnRevMutex
7	4448	351	#line 4448 "Z:\Documents\GitHub\ENGR102\wasteDisposal.nxc"
7	41	351	#line 41 "Z:\Documents\GitHub\ENGR102\wasteDisposal.nxc"
7	41	351	#line 41 "Z:\Documents\GitHub\ENGR102\wasteDisposal.nxc"
7	42	351		set __Wait_7qG2_ms_7qG2_000_inline_avoid, 1000
7	41	354	#line 41 "Z:\Documents\GitHub\ENGR102\wasteDisposal.nxc"
7	7921	354	#line 7921 "NXCDefs.h"
7	7922	354		wait2 NA, __Wait_7qG2_ms_7qG2_000_inline_avoid
7	7921	357	#line 7921 "NXCDefs.h"
7	42	357	#line 42 "Z:\Documents\GitHub\ENGR102\wasteDisposal.nxc"
7	43	357	#line 43 "Z:\Documents\GitHub\ENGR102\wasteDisposal.nxc"
7	44	357	#pragma macro 7
7	44	357		setout __OUT_AB, 2, __constVal0, 1, __constVal3, 8, __constVal0, 6, __constVal32, 7, __constVal0, 5, __constVal0, 10, __constVal96, 11, __constVal32, 12, __constVal32, 0, __constVal63
7	4461	380	#line 4461 "Z:\Documents\GitHub\ENGR102\wasteDisposal.nxc"
7	43	380	#line 43 "Z:\Documents\GitHub\ENGR102\wasteDisposal.nxc"
7	43	380	#line 43 "Z:\Documents\GitHub\ENGR102\wasteDisposal.nxc"
7	44	380		set __D0avoid, 50
7	44	383	#line 44 "Z:\Documents\GitHub\ENGR102\wasteDisposal.nxc"
7	45	383	#pragma macro 10
7	45	383		acquire __OnRevMutex
7	45	384		neg __OnRev_Tmp, __D0avoid
7	45	387		setout __constVal0, 2, __OnRev_Tmp, 1, __constVal3, 8, __constVal0, 6, __constVal32, 7, __constVal0, 5, __constVal0, 10, __constVal96, 11, __constVal32, 12, __constVal32, 0, __constVal63
7	45	410		release __OnRevMutex
7	4468	411	#line 4468 "Z:\Documents\GitHub\ENGR102\wasteDisposal.nxc"
7	44	411	#line 44 "Z:\Documents\GitHub\ENGR102\wasteDisposal.nxc"
7	44	411	#line 44 "Z:\Documents\GitHub\ENGR102\wasteDisposal.nxc"
7	45	411		set __Wait_7qG2_ms_7qG2_000_inline_avoid, 750
7	44	414	#line 44 "Z:\Documents\GitHub\ENGR102\wasteDisposal.nxc"
7	7921	414	#line 7921 "NXCDefs.h"
7	7922	414		wait2 NA, __Wait_7qG2_ms_7qG2_000_inline_avoid
7	7921	417	#line 7921 "NXCDefs.h"
7	45	417	#line 45 "Z:\Documents\GitHub\ENGR102\wasteDisposal.nxc"
7	45	417	#line 45 "Z:\Documents\GitHub\ENGR102\wasteDisposal.nxc"
7	45	417	#line 45 "Z:\Documents\GitHub\ENGR102\wasteDisposal.nxc"
7	46	417	#line 46 "Z:\Documents\GitHub\ENGR102\wasteDisposal.nxc"
7	46	417	#line 46 "Z:\Documents\GitHub\ENGR102\wasteDisposal.nxc"
7	47	417		add avoids, avoids, __constVal1
7	46	421	#line 46 "Z:\Documents\GitHub\ENGR102\wasteDisposal.nxc"
7	46	421	#line 46 "Z:\Documents\GitHub\ENGR102\wasteDisposal.nxc"
7	50	421	#line 50 "Z:\Documents\GitHub\ENGR102\wasteDisposal.nxc"
7	52	421	#line 52 "Z:\Documents\GitHub\ENGR102\wasteDisposal.nxc"
7	52	421	#line 52 "Z:\Documents\GitHub\ENGR102\wasteDisposal.nxc"
7	53	421		subret __avoid_return
8	56	0	#line 56 "Z:\Documents\GitHub\ENGR102\wasteDisposal.nxc"
8	57	0		set __lightavoid_7qG2_THRESHOLD_7qG2_000, 30
8	56	3	#line 56 "Z:\Documents\GitHub\ENGR102\wasteDisposal.nxc"
8	56	3	#line 56 "Z:\Documents\GitHub\ENGR102\wasteDisposal.nxc"
8	57	3		set __SetSensorLowspeed_7qG2_port_7qG2_000_inline_lightavoid, 1
8	56	6	#line 56 "Z:\Documents\GitHub\ENGR102\wasteDisposal.nxc"
8	57	6	#line 57 "Z:\Documents\GitHub\ENGR102\wasteDisposal.nxc"
8	58	6		mov __SetSensorLowspeed_7qG2_bIsPowered_7qG2_000_inline_lightavoid, __constVal1
8	3758	8	#line 3758 "NXCDefs.h"
8	3759	8		mov __SetSensorType_7qG2_port_7qG2_000_inline_SetSensorLowspeed_inline_lightavoid, __SetSensorLowspeed_7qG2_port_7qG2_000_inline_lightavoid
8	3758	10	#line 3758 "NXCDefs.h"
8	3758	10	#line 3758 "NXCDefs.h"
8	3759	10		mov __DU0SetSensorLowspeed_inline_lightavoid, __SetSensorLowspeed_7qG2_bIsPowered_7qG2_000_inline_lightavoid
8	3758	12	#line 3758 "NXCDefs.h"
8	3759	12		tst 5, __zfSetSensorLowspeed_inline_lightavoid, __DU0SetSensorLowspeed_inline_lightavoid
8	3758	15	#line 3758 "NXCDefs.h"
8	3759	15		brtst 4, __005__NXC_Label_36, __zfSetSensorLowspeed_inline_lightavoid
8	3758	18	#line 3758 "NXCDefs.h"
8	3759	18		set __D0SetSensorLowspeed_inline_lightavoid, 11
8	3758	21	#line 3758 "NXCDefs.h"
8	3759	21		jmp __005__NXC_Label_37
8	3758	23	#line 3758 "NXCDefs.h"
8	3759	23		set __D0SetSensorLowspeed_inline_lightavoid, 10
8	3758	26	#line 3758 "NXCDefs.h"
8	3759	26		mov __SetSensorType_7qG2_type_7qG2_000_inline_SetSensorLowspeed_inline_lightavoid, __D0SetSensorLowspeed_inline_lightavoid
8	3663	28	#line 3663 "NXCDefs.h"
8	3664	28		setin __SetSensorType_7qG2_type_7qG2_000_inline_SetSensorLowspeed_inline_lightavoid, __SetSensorType_7qG2_port_7qG2_000_inline_SetSensorLowspeed_inline_lightavoid, 0
8	3663	32	#line 3663 "NXCDefs.h"
8	3759	32	#line 3759 "NXCDefs.h"
8	3759	32	#line 3759 "NXCDefs.h"
8	3760	32		mov __SetSensorMode_7qG2_port_7qG2_000_inline_SetSensorLowspeed_inline_lightavoid, __SetSensorLowspeed_7qG2_port_7qG2_000_inline_lightavoid
8	3759	34	#line 3759 "NXCDefs.h"
8	3759	34	#line 3759 "NXCDefs.h"
8	3760	34		set __SetSensorMode_7qG2_mode_7qG2_000_inline_SetSensorLowspeed_inline_lightavoid, 0
8	3759	37	#line 3759 "NXCDefs.h"
8	3676	37	#line 3676 "NXCDefs.h"
8	3677	37		setin __SetSensorMode_7qG2_mode_7qG2_000_inline_SetSensorLowspeed_inline_lightavoid, __SetSensorMode_7qG2_port_7qG2_000_inline_SetSensorLowspeed_inline_lightavoid, 1
8	3676	41	#line 3676 "NXCDefs.h"
8	3760	41	#line 3760 "NXCDefs.h"
8	3760	41	#line 3760 "NXCDefs.h"
8	3761	41		mov __ResetSensor_7qG2_port_7qG2_000_inline_SetSensorLowspeed_inline_lightavoid, __SetSensorLowspeed_7qG2_port_7qG2_000_inline_lightavoid
8	3760	43	#line 3760 "NXCDefs.h"
8	3694	43	#line 3694 "NXCDefs.h"
8	3695	43	#pragma macro 4
8	3695	43		acquire __ResetSensorMutex
8	3695	44		mov __ResetSensorPort, __ResetSensor_7qG2_port_7qG2_000_inline_SetSensorLowspeed_inline_lightavoid
8	3695	46		subcall __ResetSensorSubroutine, ____ResetSensorSubroutine_return
8	3695	48		release __ResetSensorMutex
8	4603	49	#line 4603 "NXCDefs.h"
8	3694	49	#line 3694 "NXCDefs.h"
8	3761	49	#line 3761 "NXCDefs.h"
8	57	49	#line 57 "Z:\Documents\GitHub\ENGR102\wasteDisposal.nxc"
8	57	49	#line 57 "Z:\Documents\GitHub\ENGR102\wasteDisposal.nxc"
8	58	49	#pragma macro 26
8	58	49		acquire __RLSBmutex1
8	58	50		mov __RLSReadBuf1, __RLSBbufLSWrite1
8	58	52		set __RLSBytesCount1, 1
8	58	55		wait2 NA, __constVal15
8	58	58		subcall __ReadLSBytes1, ____ReadLSBytes1_return
8	58	60		index __D0lightavoid, __RLSReadBuf1, 65535
8	58	64		release __RLSBmutex1
8	4608	65	#line 4608 "Z:\Documents\GitHub\ENGR102\wasteDisposal.nxc"
8	57	65	#line 57 "Z:\Documents\GitHub\ENGR102\wasteDisposal.nxc"
8	58	65		mov __signed_stack_001lightavoid, __D0lightavoid
8	57	67	#line 57 "Z:\Documents\GitHub\ENGR102\wasteDisposal.nxc"
8	58	67		mov __D0lightavoid, __lightavoid_7qG2_THRESHOLD_7qG2_000
8	57	69	#line 57 "Z:\Documents\GitHub\ENGR102\wasteDisposal.nxc"
8	58	69		cmp 0, __zflightavoid, __signed_stack_001lightavoid, __D0lightavoid
8	57	73	#line 57 "Z:\Documents\GitHub\ENGR102\wasteDisposal.nxc"
8	58	73		mov __D0lightavoid, __zflightavoid
8	58	75	#line 58 "Z:\Documents\GitHub\ENGR102\wasteDisposal.nxc"
8	59	75		brtst 4, __NXC_Label_543, __zflightavoid
8	58	78	#line 58 "Z:\Documents\GitHub\ENGR102\wasteDisposal.nxc"
8	59	78		set __D0lightavoid, 50
8	59	81	#line 59 "Z:\Documents\GitHub\ENGR102\wasteDisposal.nxc"
8	60	81	#pragma macro 10
8	60	81		acquire __OnRevMutex
8	60	82		neg __OnRev_Tmp, __D0lightavoid
8	60	85		setout __OUT_AB, 2, __OnRev_Tmp, 1, __constVal3, 8, __constVal0, 6, __constVal32, 7, __constVal0, 5, __constVal0, 10, __constVal96, 11, __constVal32, 12, __constVal32, 0, __constVal63
8	60	108		release __OnRevMutex
8	4626	109	#line 4626 "Z:\Documents\GitHub\ENGR102\wasteDisposal.nxc"
8	59	109	#line 59 "Z:\Documents\GitHub\ENGR102\wasteDisposal.nxc"
8	59	109	#line 59 "Z:\Documents\GitHub\ENGR102\wasteDisposal.nxc"
8	60	109		set __Wait_7qG2_ms_7qG2_000_inline_lightavoid, 500
8	59	112	#line 59 "Z:\Documents\GitHub\ENGR102\wasteDisposal.nxc"
8	7921	112	#line 7921 "NXCDefs.h"
8	7922	112		wait2 NA, __Wait_7qG2_ms_7qG2_000_inline_lightavoid
8	7921	115	#line 7921 "NXCDefs.h"
8	60	115	#line 60 "Z:\Documents\GitHub\ENGR102\wasteDisposal.nxc"
8	61	115	#line 61 "Z:\Documents\GitHub\ENGR102\wasteDisposal.nxc"
8	62	115	#pragma macro 7
8	62	115		setout __OUT_AB, 2, __constVal0, 1, __constVal3, 8, __constVal0, 6, __constVal32, 7, __constVal0, 5, __constVal0, 10, __constVal96, 11, __constVal32, 12, __constVal32, 0, __constVal63
8	4643	138	#line 4643 "Z:\Documents\GitHub\ENGR102\wasteDisposal.nxc"
8	61	138	#line 61 "Z:\Documents\GitHub\ENGR102\wasteDisposal.nxc"
8	61	138	#line 61 "Z:\Documents\GitHub\ENGR102\wasteDisposal.nxc"
8	62	138		set __D0lightavoid, 50
8	62	141	#line 62 "Z:\Documents\GitHub\ENGR102\wasteDisposal.nxc"
8	63	141	#pragma macro 7
8	63	141		setout __constVal0, 2, __D0lightavoid, 1, __constVal3, 8, __constVal0, 6, __constVal32, 7, __constVal0, 5, __constVal0, 10, __constVal96, 11, __constVal32, 12, __constVal32, 0, __constVal63
8	4650	164	#line 4650 "Z:\Documents\GitHub\ENGR102\wasteDisposal.nxc"
8	62	164	#line 62 "Z:\Documents\GitHub\ENGR102\wasteDisposal.nxc"
8	62	164	#line 62 "Z:\Documents\GitHub\ENGR102\wasteDisposal.nxc"
8	63	164		set __D0lightavoid, 50
8	63	167	#line 63 "Z:\Documents\GitHub\ENGR102\wasteDisposal.nxc"
8	64	167	#pragma macro 10
8	64	167		acquire __OnRevMutex
8	64	168		neg __OnRev_Tmp, __D0lightavoid
8	64	171		setout __constVal1, 2, __OnRev_Tmp, 1, __constVal3, 8, __constVal0, 6, __constVal32, 7, __constVal0, 5, __constVal0, 10, __constVal96, 11, __constVal32, 12, __constVal32, 0, __constVal63
8	64	194		release __OnRevMutex
8	4657	195	#line 4657 "Z:\Documents\GitHub\ENGR102\wasteDisposal.nxc"
8	63	195	#line 63 "Z:\Documents\GitHub\ENGR102\wasteDisposal.nxc"
8	63	195	#line 63 "Z:\Documents\GitHub\ENGR102\wasteDisposal.nxc"
8	64	195		set __Wait_7qG2_ms_7qG2_000_inline_lightavoid, 250
8	63	198	#line 63 "Z:\Documents\GitHub\ENGR102\wasteDisposal.nxc"
8	7921	198	#line 7921 "NXCDefs.h"
8	7922	198		wait2 NA, __Wait_7qG2_ms_7qG2_000_inline_lightavoid
8	7921	201	#line 7921 "NXCDefs.h"
8	64	201	#line 64 "Z:\Documents\GitHub\ENGR102\wasteDisposal.nxc"
8	65	201	#line 65 "Z:\Documents\GitHub\ENGR102\wasteDisposal.nxc"
8	66	201	#pragma macro 7
8	66	201		setout __OUT_AB, 2, __constVal0, 1, __constVal3, 8, __constVal0, 6, __constVal32, 7, __constVal0, 5, __constVal0, 10, __constVal96, 11, __constVal32, 12, __constVal32, 0, __constVal63
8	4670	224	#line 4670 "Z:\Documents\GitHub\ENGR102\wasteDisposal.nxc"
8	65	224	#line 65 "Z:\Documents\GitHub\ENGR102\wasteDisposal.nxc"
8	69	224	#line 69 "Z:\Documents\GitHub\ENGR102\wasteDisposal.nxc"
8	69	224	#line 69 "Z:\Documents\GitHub\ENGR102\wasteDisposal.nxc"
8	70	224		subret __lightavoid_return
9	71	0	#line 71 "Z:\Documents\GitHub\ENGR102\wasteDisposal.nxc"
9	72	0	#pragma macro 7
9	72	0		setout __OUT_AB, 2, __constVal0, 1, __constVal3, 8, __constVal0, 6, __constVal32, 7, __constVal0, 5, __constVal0, 10, __constVal96, 11, __constVal32, 12, __constVal32, 0, __constVal63
9	4680	23	#line 4680 "Z:\Documents\GitHub\ENGR102\wasteDisposal.nxc"
9	71	23	#line 71 "Z:\Documents\GitHub\ENGR102\wasteDisposal.nxc"
9	72	23	#line 72 "Z:\Documents\GitHub\ENGR102\wasteDisposal.nxc"
9	73	23		subcall openClaw, __openClaw_return
9	72	25	#line 72 "Z:\Documents\GitHub\ENGR102\wasteDisposal.nxc"
9	72	25	#line 72 "Z:\Documents\GitHub\ENGR102\wasteDisposal.nxc"
9	73	25		set __Wait_7qG2_ms_7qG2_000_inline_dropOff, 1000
9	72	28	#line 72 "Z:\Documents\GitHub\ENGR102\wasteDisposal.nxc"
9	7921	28	#line 7921 "NXCDefs.h"
9	7922	28		wait2 NA, __Wait_7qG2_ms_7qG2_000_inline_dropOff
9	7921	31	#line 7921 "NXCDefs.h"
9	73	31	#line 73 "Z:\Documents\GitHub\ENGR102\wasteDisposal.nxc"
9	73	31	#line 73 "Z:\Documents\GitHub\ENGR102\wasteDisposal.nxc"
9	74	31		set __signed_stack_001dropOff, 50
9	73	34	#line 73 "Z:\Documents\GitHub\ENGR102\wasteDisposal.nxc"
9	73	34	#line 73 "Z:\Documents\GitHub\ENGR102\wasteDisposal.nxc"
9	74	34		mov __D0dropOff, __constValNeg360
9	74	36	#line 74 "Z:\Documents\GitHub\ENGR102\wasteDisposal.nxc"
9	75	36	#pragma macro 35
9	75	36		acquire __rotateMutex0
9	75	37		mov __rotate_ports3, __OUT_AB
9	75	39		mov __rotate_power3, __signed_stack_001dropOff
9	75	41		mov __rotate_angle3, __D0dropOff
9	75	43		mov __rotate_turnpct3, __constVal0
9	75	45		mov __rotate_sync3, __constVal0
9	75	47		mov __rotate_stop3, __constVal1
9	75	49		mov __rotate_theRVP3, __constVal32
9	75	51		mov __rotate_theRVI3, __constVal0
9	75	53		mov __rotate_theRVD3, __constVal96
9	75	55		subcall __RotateMotor3, ____RotateMotor3_return
9	75	58		release __rotateMutex0
9	4710	59	#line 4710 "Z:\Documents\GitHub\ENGR102\wasteDisposal.nxc"
9	74	59	#line 74 "Z:\Documents\GitHub\ENGR102\wasteDisposal.nxc"
9	74	59	#line 74 "Z:\Documents\GitHub\ENGR102\wasteDisposal.nxc"
9	75	59		set __signed_stack_001dropOff, 50
9	74	62	#line 74 "Z:\Documents\GitHub\ENGR102\wasteDisposal.nxc"
9	74	62	#line 74 "Z:\Documents\GitHub\ENGR102\wasteDisposal.nxc"
9	75	62		set __D0dropOff, 360
9	76	65	#line 76 "Z:\Documents\GitHub\ENGR102\wasteDisposal.nxc"
9	77	65	#pragma macro 33
9	77	65		acquire __rotateMutex0
9	77	66		arrbuild __rotate_ports0, __constVal0
9	77	70		mov __rotate_power0, __signed_stack_001dropOff
9	77	72		mov __rotate_angle0, __D0dropOff
9	77	74		mov __rotate_turnpct0, __constVal0
9	77	76		mov __rotate_sync0, __constVal0
9	77	78		mov __rotate_stop0, __constVal1
9	77	80		mov __rotate_theRVP0, __constVal32
9	77	82		mov __rotate_theRVI0, __constVal0
9	77	84		mov __rotate_theRVD0, __constVal96
9	77	86		subcall __RotateMotor0, ____RotateMotor0_return
9	77	88		release __rotateMutex0
9	4723	89	#line 4723 "Z:\Documents\GitHub\ENGR102\wasteDisposal.nxc"
9	76	89	#line 76 "Z:\Documents\GitHub\ENGR102\wasteDisposal.nxc"
9	79	89	#line 79 "Z:\Documents\GitHub\ENGR102\wasteDisposal.nxc"
9	80	89		subret __dropOff_return
10	84	0	#line 84 "Z:\Documents\GitHub\ENGR102\wasteDisposal.nxc"
10	85	0		set __findDumpsite_7qG2_THRESHOLD_7qG2_000, 57
10	84	3	#line 84 "Z:\Documents\GitHub\ENGR102\wasteDisposal.nxc"
10	86	3	#line 86 "Z:\Documents\GitHub\ENGR102\wasteDisposal.nxc"
10	87	3		set __findDumpsite_7qG2_x_7qG2_000, 0
10	86	6	#line 86 "Z:\Documents\GitHub\ENGR102\wasteDisposal.nxc"
10	86	6	#line 86 "Z:\Documents\GitHub\ENGR102\wasteDisposal.nxc"
10	87	6		set __SetSensorLight_7qG2_port_7qG2_000_inline_findDumpsite, 3
10	86	9	#line 86 "Z:\Documents\GitHub\ENGR102\wasteDisposal.nxc"
10	87	9	#line 87 "Z:\Documents\GitHub\ENGR102\wasteDisposal.nxc"
10	88	9		mov __SetSensorLight_7qG2_bActive_7qG2_000_inline_findDumpsite, __constVal1
10	3729	11	#line 3729 "NXCDefs.h"
10	3730	11		mov __SetSensorType_7qG2_port_7qG2_000_inline_SetSensorLight_inline_findDumpsite, __SetSensorLight_7qG2_port_7qG2_000_inline_findDumpsite
10	3729	13	#line 3729 "NXCDefs.h"
10	3729	13	#line 3729 "NXCDefs.h"
10	3730	13		mov __DU0SetSensorLight_inline_findDumpsite, __SetSensorLight_7qG2_bActive_7qG2_000_inline_findDumpsite
10	3729	15	#line 3729 "NXCDefs.h"
10	3730	15		tst 5, __zfSetSensorLight_inline_findDumpsite, __DU0SetSensorLight_inline_findDumpsite
10	3729	18	#line 3729 "NXCDefs.h"
10	3730	18		brtst 4, __001__NXC_Label_4, __zfSetSensorLight_inline_findDumpsite
10	3729	21	#line 3729 "NXCDefs.h"
10	3730	21		set __D0SetSensorLight_inline_findDumpsite, 5
10	3729	24	#line 3729 "NXCDefs.h"
10	3730	24		jmp __001__NXC_Label_5
10	3729	26	#line 3729 "NXCDefs.h"
10	3730	26		set __D0SetSensorLight_inline_findDumpsite, 6
10	3729	29	#line 3729 "NXCDefs.h"
10	3730	29		mov __SetSensorType_7qG2_type_7qG2_000_inline_SetSensorLight_inline_findDumpsite, __D0SetSensorLight_inline_findDumpsite
10	3663	31	#line 3663 "NXCDefs.h"
10	3664	31		setin __SetSensorType_7qG2_type_7qG2_000_inline_SetSensorLight_inline_findDumpsite, __SetSensorType_7qG2_port_7qG2_000_inline_SetSensorLight_inline_findDumpsite, 0
10	3663	35	#line 3663 "NXCDefs.h"
10	3730	35	#line 3730 "NXCDefs.h"
10	3730	35	#line 3730 "NXCDefs.h"
10	3731	35		mov __SetSensorMode_7qG2_port_7qG2_000_inline_SetSensorLight_inline_findDumpsite, __SetSensorLight_7qG2_port_7qG2_000_inline_findDumpsite
10	3730	37	#line 3730 "NXCDefs.h"
10	3730	37	#line 3730 "NXCDefs.h"
10	3731	37		set __SetSensorMode_7qG2_mode_7qG2_000_inline_SetSensorLight_inline_findDumpsite, 128
10	3730	40	#line 3730 "NXCDefs.h"
10	3676	40	#line 3676 "NXCDefs.h"
10	3677	40		setin __SetSensorMode_7qG2_mode_7qG2_000_inline_SetSensorLight_inline_findDumpsite, __SetSensorMode_7qG2_port_7qG2_000_inline_SetSensorLight_inline_findDumpsite, 1
10	3676	44	#line 3676 "NXCDefs.h"
10	3731	44	#line 3731 "NXCDefs.h"
10	3731	44	#line 3731 "NXCDefs.h"
10	3732	44		mov __ResetSensor_7qG2_port_7qG2_000_inline_SetSensorLight_inline_findDumpsite, __SetSensorLight_7qG2_port_7qG2_000_inline_findDumpsite
10	3731	46	#line 3731 "NXCDefs.h"
10	3694	46	#line 3694 "NXCDefs.h"
10	3695	46	#pragma macro 4
10	3695	46		acquire __ResetSensorMutex
10	3695	47		mov __ResetSensorPort, __ResetSensor_7qG2_port_7qG2_000_inline_SetSensorLight_inline_findDumpsite
10	3695	49		subcall __ResetSensorSubroutine, ____ResetSensorSubroutine_return
10	3695	51		release __ResetSensorMutex
10	4841	52	#line 4841 "NXCDefs.h"
10	3694	52	#line 3694 "NXCDefs.h"
10	3732	52	#line 3732 "NXCDefs.h"
10	87	52	#line 87 "Z:\Documents\GitHub\ENGR102\wasteDisposal.nxc"
10	87	52	#line 87 "Z:\Documents\GitHub\ENGR102\wasteDisposal.nxc"
10	88	52		mov __signed_stack_001findDumpsite, __findDumpsite_7qG2_x_7qG2_000
10	87	54	#line 87 "Z:\Documents\GitHub\ENGR102\wasteDisposal.nxc"
10	87	54	#line 87 "Z:\Documents\GitHub\ENGR102\wasteDisposal.nxc"
10	88	54		set __D0findDumpsite, 0
10	87	57	#line 87 "Z:\Documents\GitHub\ENGR102\wasteDisposal.nxc"
10	88	57		cmp 4, __zffindDumpsite, __signed_stack_001findDumpsite, __D0findDumpsite
10	87	61	#line 87 "Z:\Documents\GitHub\ENGR102\wasteDisposal.nxc"
10	88	61		mov __D0findDumpsite, __zffindDumpsite
10	88	63	#line 88 "Z:\Documents\GitHub\ENGR102\wasteDisposal.nxc"
10	89	63		brtst 4, __NXC_Label_571, __zffindDumpsite
10	88	66	#line 88 "Z:\Documents\GitHub\ENGR102\wasteDisposal.nxc"
10	89	66		getin __signed_stack_001findDumpsite, __constVal3, 4
10	88	70	#line 88 "Z:\Documents\GitHub\ENGR102\wasteDisposal.nxc"
10	88	70	#line 88 "Z:\Documents\GitHub\ENGR102\wasteDisposal.nxc"
10	89	70		mov __D0findDumpsite, __findDumpsite_7qG2_THRESHOLD_7qG2_000
10	88	72	#line 88 "Z:\Documents\GitHub\ENGR102\wasteDisposal.nxc"
10	89	72		cmp 1, __zffindDumpsite, __signed_stack_001findDumpsite, __D0findDumpsite
10	88	76	#line 88 "Z:\Documents\GitHub\ENGR102\wasteDisposal.nxc"
10	89	76		mov __D0findDumpsite, __zffindDumpsite
10	89	78	#line 89 "Z:\Documents\GitHub\ENGR102\wasteDisposal.nxc"
10	90	78		brtst 4, __NXC_Label_576, __zffindDumpsite
10	89	81	#line 89 "Z:\Documents\GitHub\ENGR102\wasteDisposal.nxc"
10	90	81		getin __signed_stack_001findDumpsite, __constVal3, 4
10	89	85	#line 89 "Z:\Documents\GitHub\ENGR102\wasteDisposal.nxc"
10	89	85	#line 89 "Z:\Documents\GitHub\ENGR102\wasteDisposal.nxc"
10	90	85		set __D0findDumpsite, 97
10	89	88	#line 89 "Z:\Documents\GitHub\ENGR102\wasteDisposal.nxc"
10	90	88		cmp 1, __zffindDumpsite, __signed_stack_001findDumpsite, __D0findDumpsite
10	89	92	#line 89 "Z:\Documents\GitHub\ENGR102\wasteDisposal.nxc"
10	90	92		mov __D0findDumpsite, __zffindDumpsite
10	90	94	#line 90 "Z:\Documents\GitHub\ENGR102\wasteDisposal.nxc"
10	91	94		brtst 4, __NXC_Label_579, __zffindDumpsite
10	91	97	#line 91 "Z:\Documents\GitHub\ENGR102\wasteDisposal.nxc"
10	92	97		subcall dropOff, __dropOff_return
10	91	99	#line 91 "Z:\Documents\GitHub\ENGR102\wasteDisposal.nxc"
10	92	99	#line 92 "Z:\Documents\GitHub\ENGR102\wasteDisposal.nxc"
10	93	99		set __findDumpsite_7qG2_x_7qG2_000, 1
10	92	102	#line 92 "Z:\Documents\GitHub\ENGR102\wasteDisposal.nxc"
10	92	102	#line 92 "Z:\Documents\GitHub\ENGR102\wasteDisposal.nxc"
10	94	102	#line 94 "Z:\Documents\GitHub\ENGR102\wasteDisposal.nxc"
10	95	102		jmp __NXC_Label_582
10	94	104	#line 94 "Z:\Documents\GitHub\ENGR102\wasteDisposal.nxc"
10	95	104		set __D0findDumpsite, 75
10	95	107	#line 95 "Z:\Documents\GitHub\ENGR102\wasteDisposal.nxc"
10	96	107	#pragma macro 7
10	96	107		setout __OUT_AB, 2, __D0findDumpsite, 1, __constVal3, 8, __constVal0, 6, __constVal32, 7, __constVal0, 5, __constVal0, 10, __constVal96, 11, __constVal32, 12, __constVal32, 0, __constVal63
10	4906	130	#line 4906 "Z:\Documents\GitHub\ENGR102\wasteDisposal.nxc"
10	95	130	#line 95 "Z:\Documents\GitHub\ENGR102\wasteDisposal.nxc"
10	96	130	#line 96 "Z:\Documents\GitHub\ENGR102\wasteDisposal.nxc"
10	97	130		subcall lightavoid, __lightavoid_return
10	96	132	#line 96 "Z:\Documents\GitHub\ENGR102\wasteDisposal.nxc"
10	98	132	#line 98 "Z:\Documents\GitHub\ENGR102\wasteDisposal.nxc"
10	99	132	#line 99 "Z:\Documents\GitHub\ENGR102\wasteDisposal.nxc"
10	100	132		jmp __NXC_Label_585
10	99	134	#line 99 "Z:\Documents\GitHub\ENGR102\wasteDisposal.nxc"
10	100	134		set __D0findDumpsite, 50
10	100	137	#line 100 "Z:\Documents\GitHub\ENGR102\wasteDisposal.nxc"
10	101	137	#pragma macro 7
10	101	137		setout __constVal0, 2, __D0findDumpsite, 1, __constVal3, 8, __constVal0, 6, __constVal32, 7, __constVal0, 5, __constVal0, 10, __constVal96, 11, __constVal32, 12, __constVal32, 0, __constVal63
10	4921	160	#line 4921 "Z:\Documents\GitHub\ENGR102\wasteDisposal.nxc"
10	100	160	#line 100 "Z:\Documents\GitHub\ENGR102\wasteDisposal.nxc"
10	100	160	#line 100 "Z:\Documents\GitHub\ENGR102\wasteDisposal.nxc"
10	101	160		set __D0findDumpsite, 50
10	101	163	#line 101 "Z:\Documents\GitHub\ENGR102\wasteDisposal.nxc"
10	102	163	#pragma macro 10
10	102	163		acquire __OnRevMutex
10	102	164		neg __OnRev_Tmp, __D0findDumpsite
10	102	167		setout __constVal1, 2, __OnRev_Tmp, 1, __constVal3, 8, __constVal0, 6, __constVal32, 7, __constVal0, 5, __constVal0, 10, __constVal96, 11, __constVal32, 12, __constVal32, 0, __constVal63
10	102	190		release __OnRevMutex
10	4928	191	#line 4928 "Z:\Documents\GitHub\ENGR102\wasteDisposal.nxc"
10	101	191	#line 101 "Z:\Documents\GitHub\ENGR102\wasteDisposal.nxc"
10	103	191	#line 103 "Z:\Documents\GitHub\ENGR102\wasteDisposal.nxc"
10	105	191	#line 105 "Z:\Documents\GitHub\ENGR102\wasteDisposal.nxc"
10	106	191		jmp __NXC_Label_570
10	105	193	#line 105 "Z:\Documents\GitHub\ENGR102\wasteDisposal.nxc"
10	105	193	#line 105 "Z:\Documents\GitHub\ENGR102\wasteDisposal.nxc"
10	106	193		subret __findDumpsite_return
11	131	0	#line 131 "Z:\Documents\GitHub\ENGR102\wasteDisposal.nxc"
11	132	0		subret ____initialize_global_data_return
#CLUMPS
Clump	Name	Offset	File
0	main	0	Z:\Documents\GitHub\ENGR102\wasteDisposal.nxc
1	__RotateMotor0	218	NXTDefs.h
2	__RotateMotor3	387	NXTDefs.h
3	__ResetSensorSubroutine	556	NXTDefs.h
4	__ReadLSBytes1	569	NXTDefs.h
5	closeClaw	654	Z:\Documents\GitHub\ENGR102\wasteDisposal.nxc
6	openClaw	711	Z:\Documents\GitHub\ENGR102\wasteDisposal.nxc
7	avoid	773	Z:\Documents\GitHub\ENGR102\wasteDisposal.nxc
8	lightavoid	1196	Z:\Documents\GitHub\ENGR102\wasteDisposal.nxc
9	dropOff	1422	Z:\Documents\GitHub\ENGR102\wasteDisposal.nxc
10	findDumpsite	1513	Z:\Documents\GitHub\ENGR102\wasteDisposal.nxc
11	__initialize_global_data	1708	Z:\Documents\GitHub\ENGR102\wasteDisposal.nxc
